; Function Attrs: mustprogress nofree nounwind uwtable
define noundef nonnull ptr @_ZN7openvdb5v11_04math11MapRegistry8instanceEv() local_unnamed_addr #6 align 2 personality ptr @__gxx_personality_v0 {
entry:
  %0 = load atomic i8, ptr @_ZGVZN7openvdb5v11_04math11MapRegistry8instanceEvE8registry acquire, align 8
  %guard.uninitialized = icmp eq i8 %0, 0
  br i1 %guard.uninitialized, label %init.check, label %init.end, !prof !15

init.check:                                       ; preds = %entry
  %1 = tail call i32 @__cxa_guard_acquire(ptr nonnull @_ZGVZN7openvdb5v11_04math11MapRegistry8instanceEvE8registry) #25
  %tobool.not = icmp eq i32 %1, 0
  br i1 %tobool.not, label %init.end, label %init

init:                                             ; preds = %init.check
  store i32 0, ptr getelementptr inbounds (%"class.openvdb::v11_0::math::MapRegistry", ptr @_ZZN7openvdb5v11_04math11MapRegistry8instanceEvE8registry, i64 0, i32 0, i32 0, i32 0, i32 1, i32 0, i32 0), align 8
  store ptr null, ptr getelementptr inbounds (%"class.openvdb::v11_0::math::MapRegistry", ptr @_ZZN7openvdb5v11_04math11MapRegistry8instanceEvE8registry, i64 0, i32 0, i32 0, i32 0, i32 1, i32 0, i32 1), align 8
  store ptr getelementptr inbounds (%"class.openvdb::v11_0::math::MapRegistry", ptr @_ZZN7openvdb5v11_04math11MapRegistry8instanceEvE8registry, i64 0, i32 0, i32 0, i32 0, i32 1, i32 0, i32 0), ptr getelementptr inbounds (%"class.openvdb::v11_0::math::MapRegistry", ptr @_ZZN7openvdb5v11_04math11MapRegistry8instanceEvE8registry, i64 0, i32 0, i32 0, i32 0, i32 1, i32 0, i32 2), align 8
  store ptr getelementptr inbounds (%"class.openvdb::v11_0::math::MapRegistry", ptr @_ZZN7openvdb5v11_04math11MapRegistry8instanceEvE8registry, i64 0, i32 0, i32 0, i32 0, i32 1, i32 0, i32 0), ptr getelementptr inbounds (%"class.openvdb::v11_0::math::MapRegistry", ptr @_ZZN7openvdb5v11_04math11MapRegistry8instanceEvE8registry, i64 0, i32 0, i32 0, i32 0, i32 1, i32 0, i32 3), align 8
  store i64 0, ptr getelementptr inbounds (%"class.openvdb::v11_0::math::MapRegistry", ptr @_ZZN7openvdb5v11_04math11MapRegistry8instanceEvE8registry, i64 0, i32 0, i32 0, i32 0, i32 1, i32 1), align 8
  %2 = tail call i32 @__cxa_atexit(ptr nonnull @_ZN7openvdb5v11_04math11MapRegistryD2Ev, ptr nonnull @_ZZN7openvdb5v11_04math11MapRegistry8instanceEvE8registry, ptr nonnull @__dso_handle) #25
  tail call void @__cxa_guard_release(ptr nonnull @_ZGVZN7openvdb5v11_04math11MapRegistry8instanceEvE8registry) #25
  br label %init.end

init.end:                                         ; preds = %init, %init.check, %entry
  ret ptr @_ZZN7openvdb5v11_04math11MapRegistry8instanceEvE8registry
}